(dp1
S'cmsy10'
p2
(dp3
S'normal'
p4
(dp5
g4
(dp6
I400
(dp7
g4
(dp8
S'scalable'
p9
S'/opt/test-aptinstaller-slc4/slc4_ia32_gcc345/external/py2-matplotlib/0.87.7/lib/python2.4/site-packages/matplotlib/mpl-data/cmsy10.ttf'
p10
ssssssS'monospace'
p11
(dp12
S'oblique'
p13
(dp14
g4
(dp15
I400
(dp16
g4
(dp17
g9
S'/opt/test-aptinstaller-slc4/slc4_ia32_gcc345/external/py2-matplotlib/0.87.7/lib/python2.4/site-packages/matplotlib/mpl-data/VeraMoIt.ttf'
p18
sssI700
(dp19
g4
(dp20
g9
S'/opt/test-aptinstaller-slc4/slc4_ia32_gcc345/external/py2-matplotlib/0.87.7/lib/python2.4/site-packages/matplotlib/mpl-data/VeraMoBI.ttf'
p21
sssssg4
(dp22
g4
(dp23
I400
(dp24
g4
(dp25
g9
S'/opt/test-aptinstaller-slc4/slc4_ia32_gcc345/external/py2-matplotlib/0.87.7/lib/python2.4/site-packages/matplotlib/mpl-data/VeraMono.ttf'
p26
sssI700
(dp27
g4
(dp28
g9
S'/opt/test-aptinstaller-slc4/slc4_ia32_gcc345/external/py2-matplotlib/0.87.7/lib/python2.4/site-packages/matplotlib/mpl-data/VeraMoBd.ttf'
p29
ssssssS'Bitstream Vera Sans'
p30
(dp31
g13
(dp32
g4
(dp33
I400
(dp34
g4
(dp35
g9
S'/opt/test-aptinstaller-slc4/slc4_ia32_gcc345/external/py2-matplotlib/0.87.7/lib/python2.4/site-packages/matplotlib/mpl-data/VeraIt.ttf'
p36
sssI700
(dp37
g4
(dp38
g9
S'/opt/test-aptinstaller-slc4/slc4_ia32_gcc345/external/py2-matplotlib/0.87.7/lib/python2.4/site-packages/matplotlib/mpl-data/VeraBI.ttf'
p39
sssssg4
(dp40
g4
(dp41
I400
(dp42
g4
(dp43
g9
S'/opt/test-aptinstaller-slc4/slc4_ia32_gcc345/external/py2-matplotlib/0.87.7/lib/python2.4/site-packages/matplotlib/mpl-data/Vera.ttf'
p44
sssI700
(dp45
g4
(dp46
g9
S'/opt/test-aptinstaller-slc4/slc4_ia32_gcc345/external/py2-matplotlib/0.87.7/lib/python2.4/site-packages/matplotlib/mpl-data/VeraBd.ttf'
p47
ssssssS'Bitstream Vera Sans Mono'
p48
(dp49
g13
(dp50
g4
(dp51
I400
(dp52
g4
(dp53
g9
g18
sssI700
(dp54
g4
(dp55
g9
g21
sssssg4
(dp56
g4
(dp57
I400
(dp58
g4
(dp59
g9
g26
sssI700
(dp60
g4
(dp61
g9
g29
ssssssS'OpenSymbol'
p62
(dp63
g4
(dp64
g4
(dp65
I400
(dp66
g4
(dp67
g9
S'/usr/share/fonts/openoffice/opens___.ttf'
p68
ssssssS'sans-serif'
p69
(dp70
g13
(dp71
g4
(dp72
I400
(dp73
g4
(dp74
g9
g36
sssI700
(dp75
g4
(dp76
g9
g39
sssssg4
(dp77
g4
(dp78
I400
(dp79
g4
(dp80
g9
g44
sssI700
(dp81
g4
(dp82
g9
g47
ssssssS'serif'
p83
(dp84
g4
(dp85
g4
(dp86
I400
(dp87
g4
(dp88
g9
S'/opt/test-aptinstaller-slc4/slc4_ia32_gcc345/external/py2-matplotlib/0.87.7/lib/python2.4/site-packages/matplotlib/mpl-data/VeraSe.ttf'
p89
sssI700
(dp90
g4
(dp91
g9
S'/opt/test-aptinstaller-slc4/slc4_ia32_gcc345/external/py2-matplotlib/0.87.7/lib/python2.4/site-packages/matplotlib/mpl-data/VeraSeBd.ttf'
p92
ssssssS'Bitstream Vera Serif'
p93
(dp94
g4
(dp95
g4
(dp96
I400
(dp97
g4
(dp98
g9
g89
sssI700
(dp99
g4
(dp100
g9
g92
ssssssS'cmr10'
p101
(dp102
g4
(dp103
g4
(dp104
I400
(dp105
g4
(dp106
g9
S'/opt/test-aptinstaller-slc4/slc4_ia32_gcc345/external/py2-matplotlib/0.87.7/lib/python2.4/site-packages/matplotlib/mpl-data/cmr10.ttf'
p107
ssssssS'cmtt10'
p108
(dp109
g4
(dp110
g4
(dp111
I400
(dp112
g4
(dp113
g9
S'/opt/test-aptinstaller-slc4/slc4_ia32_gcc345/external/py2-matplotlib/0.87.7/lib/python2.4/site-packages/matplotlib/mpl-data/cmtt10.ttf'
p114
ssssssS'cmmi10'
p115
(dp116
g4
(dp117
g4
(dp118
I400
(dp119
g4
(dp120
g9
S'/opt/test-aptinstaller-slc4/slc4_ia32_gcc345/external/py2-matplotlib/0.87.7/lib/python2.4/site-packages/matplotlib/mpl-data/cmmi10.ttf'
p121
ssssssS'cmex10'
p122
(dp123
g4
(dp124
g4
(dp125
I400
(dp126
g4
(dp127
g9
S'/opt/test-aptinstaller-slc4/slc4_ia32_gcc345/external/py2-matplotlib/0.87.7/lib/python2.4/site-packages/matplotlib/mpl-data/cmex10.ttf'
p128
ssssss.